target datalayout = "e-m:e-p270:32:32-p271:32:32-p272:64:64-i64:64-i128:128-f80:128-n8:16:32:64-S128"
target triple = "x86_64-pc-linux-gnu"

%"class.std::__cxx11::basic_string" = type { %"struct.std::__cxx11::basic_string<char>::_Alloc_hider", i64, %union.anon }
%"struct.std::__cxx11::basic_string<char>::_Alloc_hider" = type { ptr }
%union.anon = type { i64, [8 x i8] }
%"class.std::allocator.5" = type { i8 }
%"struct.std::_Vector_base.1" = type { %"struct.std::_Vector_base<float, std::allocator<float>>::_Vector_impl" }
%"struct.std::_Vector_base<float, std::allocator<float>>::_Vector_impl" = type { %"struct.std::_Vector_base<float, std::allocator<float>>::_Vector_impl_data" }
%"struct.std::_Vector_base<float, std::allocator<float>>::_Vector_impl_data" = type { ptr, ptr, ptr }
%"struct.std::_Vector_base.14" = type { %"struct.std::_Vector_base<cv::Rect_<double>, std::allocator<cv::Rect_<double>>>::_Vector_impl" }
%"struct.std::_Vector_base<cv::Rect_<double>, std::allocator<cv::Rect_<double>>>::_Vector_impl" = type { %"struct.std::_Vector_base<cv::Rect_<double>, std::allocator<cv::Rect_<double>>>::_Vector_impl_data" }
%"struct.std::_Vector_base<cv::Rect_<double>, std::allocator<cv::Rect_<double>>>::_Vector_impl_data" = type { ptr, ptr, ptr }

@.str = private unnamed_addr constant [31 x i8] c"bboxes.size() == scores.size()\00", align 1
@__func__._ZN2cv3dnn14dnn4_v202405218NMSBoxesERKSt6vectorINS_5Rect_IiEESaIS4_EERKS2_IfSaIfEEffRS2_IiSaIiEEfi = private unnamed_addr constant [9 x i8] c"NMSBoxes\00", align 1
@.str.1 = private unnamed_addr constant [115 x i8] c"generated/home/dtcxzyw/WorkSpace/Projects/compilers/llvm-opt-benchmark/bench/opencv/opencv/modules/dnn/src/nms.cpp\00", align 1
@.str.2 = private unnamed_addr constant [21 x i8] c"score_threshold >= 0\00", align 1
@.str.3 = private unnamed_addr constant [19 x i8] c"nms_threshold >= 0\00", align 1
@.str.4 = private unnamed_addr constant [8 x i8] c"eta > 0\00", align 1

; Function Attrs: mustprogress nounwind uwtable
define linkonce_odr hidden noundef i32 @_ZNSt14numeric_limitsIiE3maxEv() #5 comdat align 2 {
  ret i32 2147483647
}

; Function Attrs: mustprogress nounwind uwtable
define linkonce_odr hidden noundef i64 @_ZNKSt6vectorIfSaIfEE4sizeEv(ptr noundef nonnull align 8 dereferenceable(24) %0) #5 comdat align 2 {
  %2 = alloca ptr, align 8
  store ptr %0, ptr %2, align 8
  %3 = load ptr, ptr %2, align 8
  %4 = getelementptr inbounds %"struct.std::_Vector_base.1", ptr %3, i32 0, i32 0
  %5 = getelementptr inbounds %"struct.std::_Vector_base<float, std::allocator<float>>::_Vector_impl_data", ptr %4, i32 0, i32 1
  %6 = load ptr, ptr %5, align 8
  %7 = getelementptr inbounds %"struct.std::_Vector_base.1", ptr %3, i32 0, i32 0
  %8 = getelementptr inbounds %"struct.std::_Vector_base<float, std::allocator<float>>::_Vector_impl_data", ptr %7, i32 0, i32 0
  %9 = load ptr, ptr %8, align 8
  %10 = ptrtoint ptr %6 to i64
  %11 = ptrtoint ptr %9 to i64
  %12 = sub i64 %10, %11
  %13 = sdiv exact i64 %12, 4
  ret i64 %13
}

; Function Attrs: mustprogress nounwind uwtable
define linkonce_odr hidden noundef i64 @_ZNKSt6vectorIN2cv5Rect_IdEESaIS2_EE4sizeEv(ptr noundef nonnull align 8 dereferenceable(24) %0) #5 comdat align 2 {
  %2 = alloca ptr, align 8
  store ptr %0, ptr %2, align 8
  %3 = load ptr, ptr %2, align 8
  %4 = getelementptr inbounds %"struct.std::_Vector_base.14", ptr %3, i32 0, i32 0
  %5 = getelementptr inbounds %"struct.std::_Vector_base<cv::Rect_<double>, std::allocator<cv::Rect_<double>>>::_Vector_impl_data", ptr %4, i32 0, i32 1
  %6 = load ptr, ptr %5, align 8
  %7 = getelementptr inbounds %"struct.std::_Vector_base.14", ptr %3, i32 0, i32 0
  %8 = getelementptr inbounds %"struct.std::_Vector_base<cv::Rect_<double>, std::allocator<cv::Rect_<double>>>::_Vector_impl_data", ptr %7, i32 0, i32 0
  %9 = load ptr, ptr %8, align 8
  %10 = ptrtoint ptr %6 to i64
  %11 = ptrtoint ptr %9 to i64
  %12 = sub i64 %10, %11
  %13 = sdiv exact i64 %12, 32
  ret i64 %13
}

; Function Attrs: mustprogress uwtable
define void @_ZN2cv3dnn14dnn4_v202405218NMSBoxesERKSt6vectorINS_5Rect_IdEESaIS4_EERKS2_IfSaIfEEffRS2_IiSaIiEEfi(ptr noundef nonnull align 8 dereferenceable(24) %0, ptr noundef nonnull align 8 dereferenceable(24) %1, float noundef %2, float noundef %3, ptr noundef nonnull align 8 dereferenceable(24) %4, float noundef %5, i32 noundef %6) #4 personality ptr @__gxx_personality_v0 {
  %8 = alloca ptr, align 8
  %9 = alloca ptr, align 8
  %10 = alloca float, align 4
  %11 = alloca float, align 4
  %12 = alloca ptr, align 8
  %13 = alloca float, align 4
  %14 = alloca i32, align 4
  %15 = alloca %"class.std::__cxx11::basic_string", align 8
  %16 = alloca %"class.std::allocator.5", align 1
  %17 = alloca ptr, align 8
  %18 = alloca i32, align 4
  %19 = alloca %"class.std::__cxx11::basic_string", align 8
  %20 = alloca %"class.std::allocator.5", align 1
  %21 = alloca %"class.std::__cxx11::basic_string", align 8
  %22 = alloca %"class.std::allocator.5", align 1
  %23 = alloca %"class.std::__cxx11::basic_string", align 8
  %24 = alloca %"class.std::allocator.5", align 1
  store ptr %0, ptr %8, align 8
  store ptr %1, ptr %9, align 8
  store float %2, ptr %10, align 4
  store float %3, ptr %11, align 4
  store ptr %4, ptr %12, align 8
  store float %5, ptr %13, align 4
  store i32 %6, ptr %14, align 4
  br label %25

25:                                               ; preds = %7
  br label %26

26:                                               ; preds = %25
  %27 = load ptr, ptr %8, align 8
  %28 = call noundef i64 @_ZNKSt6vectorIN2cv5Rect_IdEESaIS2_EE4sizeEv(ptr noundef nonnull align 8 dereferenceable(24) %27) #3
  %29 = load ptr, ptr %9, align 8
  %30 = call noundef i64 @_ZNKSt6vectorIfSaIfEE4sizeEv(ptr noundef nonnull align 8 dereferenceable(24) %29) #3
  %31 = icmp eq i64 %28, %30
  br i1 %31, label %32, label %33

32:                                               ; preds = %26
  br label %45

33:                                               ; preds = %26
  call void @_ZNSaIcEC1Ev(ptr noundef nonnull align 1 dereferenceable(1) %16) #3
  invoke void @_ZNSt7__cxx1112basic_stringIcSt11char_traitsIcESaIcEEC1EPKcRKS3_(ptr noundef nonnull align 8 dereferenceable(32) %15, ptr noundef @.str, ptr noundef nonnull align 1 dereferenceable(1) %16)
          to label %34 unwind label %36

34:                                               ; preds = %33
  invoke void @_ZN2cv5errorEiRKNSt7__cxx1112basic_stringIcSt11char_traitsIcESaIcEEEPKcS9_i(i32 noundef -215, ptr noundef nonnull align 8 dereferenceable(32) %15, ptr noundef @__func__._ZN2cv3dnn14dnn4_v202405218NMSBoxesERKSt6vectorINS_5Rect_IiEESaIS4_EERKS2_IfSaIfEEffRS2_IiSaIiEEfi, ptr noundef @.str.1, i32 noundef 36) #14
          to label %35 unwind label %40

35:                                               ; preds = %34
  unreachable

36:                                               ; preds = %33
  %37 = landingpad { ptr, i32 }
          cleanup
  %38 = extractvalue { ptr, i32 } %37, 0
  store ptr %38, ptr %17, align 8
  %39 = extractvalue { ptr, i32 } %37, 1
  store i32 %39, ptr %18, align 4
  br label %44

40:                                               ; preds = %34
  %41 = landingpad { ptr, i32 }
          cleanup
  %42 = extractvalue { ptr, i32 } %41, 0
  store ptr %42, ptr %17, align 8
  %43 = extractvalue { ptr, i32 } %41, 1
  store i32 %43, ptr %18, align 4
  call void @_ZNSt7__cxx1112basic_stringIcSt11char_traitsIcESaIcEED1Ev(ptr noundef nonnull align 8 dereferenceable(32) %15) #3
  br label %44

44:                                               ; preds = %40, %36
  call void @_ZNSaIcED1Ev(ptr noundef nonnull align 1 dereferenceable(1) %16) #3
  br label %110

45:                                               ; preds = %32
  br label %46

46:                                               ; preds = %45
  br label %47

47:                                               ; preds = %46
  %48 = load float, ptr %10, align 4
  %49 = fcmp oge float %48, 0.000000e+00
  br i1 %49, label %50, label %51

50:                                               ; preds = %47
  br label %63

51:                                               ; preds = %47
  call void @_ZNSaIcEC1Ev(ptr noundef nonnull align 1 dereferenceable(1) %20) #3
  invoke void @_ZNSt7__cxx1112basic_stringIcSt11char_traitsIcESaIcEEC1EPKcRKS3_(ptr noundef nonnull align 8 dereferenceable(32) %19, ptr noundef @.str.2, ptr noundef nonnull align 1 dereferenceable(1) %20)
          to label %52 unwind label %54

52:                                               ; preds = %51
  invoke void @_ZN2cv5errorEiRKNSt7__cxx1112basic_stringIcSt11char_traitsIcESaIcEEEPKcS9_i(i32 noundef -215, ptr noundef nonnull align 8 dereferenceable(32) %19, ptr noundef @__func__._ZN2cv3dnn14dnn4_v202405218NMSBoxesERKSt6vectorINS_5Rect_IiEESaIS4_EERKS2_IfSaIfEEffRS2_IiSaIiEEfi, ptr noundef @.str.1, i32 noundef 36) #14
          to label %53 unwind label %58

53:                                               ; preds = %52
  unreachable

54:                                               ; preds = %51
  %55 = landingpad { ptr, i32 }
          cleanup
  %56 = extractvalue { ptr, i32 } %55, 0
  store ptr %56, ptr %17, align 8
  %57 = extractvalue { ptr, i32 } %55, 1
  store i32 %57, ptr %18, align 4
  br label %62

58:                                               ; preds = %52
  %59 = landingpad { ptr, i32 }
          cleanup
  %60 = extractvalue { ptr, i32 } %59, 0
  store ptr %60, ptr %17, align 8
  %61 = extractvalue { ptr, i32 } %59, 1
  store i32 %61, ptr %18, align 4
  call void @_ZNSt7__cxx1112basic_stringIcSt11char_traitsIcESaIcEED1Ev(ptr noundef nonnull align 8 dereferenceable(32) %19) #3
  br label %62

62:                                               ; preds = %58, %54
  call void @_ZNSaIcED1Ev(ptr noundef nonnull align 1 dereferenceable(1) %20) #3
  br label %110

63:                                               ; preds = %50
  br label %64

64:                                               ; preds = %63
  br label %65

65:                                               ; preds = %64
  %66 = load float, ptr %11, align 4
  %67 = fcmp oge float %66, 0.000000e+00
  br i1 %67, label %68, label %69

68:                                               ; preds = %65
  br label %81

69:                                               ; preds = %65
  call void @_ZNSaIcEC1Ev(ptr noundef nonnull align 1 dereferenceable(1) %22) #3
  invoke void @_ZNSt7__cxx1112basic_stringIcSt11char_traitsIcESaIcEEC1EPKcRKS3_(ptr noundef nonnull align 8 dereferenceable(32) %21, ptr noundef @.str.3, ptr noundef nonnull align 1 dereferenceable(1) %22)
          to label %70 unwind label %72

70:                                               ; preds = %69
  invoke void @_ZN2cv5errorEiRKNSt7__cxx1112basic_stringIcSt11char_traitsIcESaIcEEEPKcS9_i(i32 noundef -215, ptr noundef nonnull align 8 dereferenceable(32) %21, ptr noundef @__func__._ZN2cv3dnn14dnn4_v202405218NMSBoxesERKSt6vectorINS_5Rect_IiEESaIS4_EERKS2_IfSaIfEEffRS2_IiSaIiEEfi, ptr noundef @.str.1, i32 noundef 36) #14
          to label %71 unwind label %76

71:                                               ; preds = %70
  unreachable

72:                                               ; preds = %69
  %73 = landingpad { ptr, i32 }
          cleanup
  %74 = extractvalue { ptr, i32 } %73, 0
  store ptr %74, ptr %17, align 8
  %75 = extractvalue { ptr, i32 } %73, 1
  store i32 %75, ptr %18, align 4
  br label %80

76:                                               ; preds = %70
  %77 = landingpad { ptr, i32 }
          cleanup
  %78 = extractvalue { ptr, i32 } %77, 0
  store ptr %78, ptr %17, align 8
  %79 = extractvalue { ptr, i32 } %77, 1
  store i32 %79, ptr %18, align 4
  call void @_ZNSt7__cxx1112basic_stringIcSt11char_traitsIcESaIcEED1Ev(ptr noundef nonnull align 8 dereferenceable(32) %21) #3
  br label %80

80:                                               ; preds = %76, %72
  call void @_ZNSaIcED1Ev(ptr noundef nonnull align 1 dereferenceable(1) %22) #3
  br label %110

81:                                               ; preds = %68
  br label %82

82:                                               ; preds = %81
  br label %83

83:                                               ; preds = %82
  %84 = load float, ptr %13, align 4
  %85 = fcmp ogt float %84, 0.000000e+00
  br i1 %85, label %86, label %87

86:                                               ; preds = %83
  br label %99

87:                                               ; preds = %83
  call void @_ZNSaIcEC1Ev(ptr noundef nonnull align 1 dereferenceable(1) %24) #3
  invoke void @_ZNSt7__cxx1112basic_stringIcSt11char_traitsIcESaIcEEC1EPKcRKS3_(ptr noundef nonnull align 8 dereferenceable(32) %23, ptr noundef @.str.4, ptr noundef nonnull align 1 dereferenceable(1) %24)
          to label %88 unwind label %90

88:                                               ; preds = %87
  invoke void @_ZN2cv5errorEiRKNSt7__cxx1112basic_stringIcSt11char_traitsIcESaIcEEEPKcS9_i(i32 noundef -215, ptr noundef nonnull align 8 dereferenceable(32) %23, ptr noundef @__func__._ZN2cv3dnn14dnn4_v202405218NMSBoxesERKSt6vectorINS_5Rect_IiEESaIS4_EERKS2_IfSaIfEEffRS2_IiSaIiEEfi, ptr noundef @.str.1, i32 noundef 36) #14
          to label %89 unwind label %94

89:                                               ; preds = %88
  unreachable

90:                                               ; preds = %87
  %91 = landingpad { ptr, i32 }
          cleanup
  %92 = extractvalue { ptr, i32 } %91, 0
  store ptr %92, ptr %17, align 8
  %93 = extractvalue { ptr, i32 } %91, 1
  store i32 %93, ptr %18, align 4
  br label %98

94:                                               ; preds = %88
  %95 = landingpad { ptr, i32 }
          cleanup
  %96 = extractvalue { ptr, i32 } %95, 0
  store ptr %96, ptr %17, align 8
  %97 = extractvalue { ptr, i32 } %95, 1
  store i32 %97, ptr %18, align 4
  call void @_ZNSt7__cxx1112basic_stringIcSt11char_traitsIcESaIcEED1Ev(ptr noundef nonnull align 8 dereferenceable(32) %23) #3
  br label %98

98:                                               ; preds = %94, %90
  call void @_ZNSaIcED1Ev(ptr noundef nonnull align 1 dereferenceable(1) %24) #3
  br label %110

99:                                               ; preds = %86
  br label %100

100:                                              ; preds = %99
  br label %101

101:                                              ; preds = %100
  %102 = load ptr, ptr %8, align 8
  %103 = load ptr, ptr %9, align 8
  %104 = load float, ptr %10, align 4
  %105 = load float, ptr %11, align 4
  %106 = load float, ptr %13, align 4
  %107 = load i32, ptr %14, align 4
  %108 = load ptr, ptr %12, align 8
  %109 = call noundef i32 @_ZNSt14numeric_limitsIiE3maxEv() #3
  call void @_ZN2cv3dnn8NMSFast_INS_5Rect_IdEEEEvRKSt6vectorIT_SaIS5_EERKS4_IfSaIfEEfffiRS4_IiSaIiEEPFfRKS5_SI_Ei(ptr noundef nonnull align 8 dereferenceable(24) %102, ptr noundef nonnull align 8 dereferenceable(24) %103, float noundef %104, float noundef %105, float noundef %106, i32 noundef %107, ptr noundef nonnull align 8 dereferenceable(24) %108, ptr noundef @_ZN2cv3dnn14dnn4_v20240521L11rectOverlapINS_5Rect_IdEEEEfRKT_S7_, i32 noundef %109)
  ret void

110:                                              ; preds = %98, %80, %62, %44
  %111 = load ptr, ptr %17, align 8
  %112 = load i32, ptr %18, align 4
  %113 = insertvalue { ptr, i32 } poison, ptr %111, 0
  %114 = insertvalue { ptr, i32 } %113, i32 %112, 1
  resume { ptr, i32 } %114
}